target datalayout = "e-m:e-p270:32:32-p271:32:32-p272:64:64-i64:64-i128:128-f80:128-n8:16:32:64-S128"
target triple = "x86_64-pc-linux-gnu"

%struct.CVodeMemRec = type { ptr, double, ptr, ptr, i32, i32, double, double, ptr, i32, i32, ptr, ptr, i32, i32, ptr, i32, i32, double, double, ptr, i32, i32, i32, i32, ptr, ptr, ptr, i32, i32, ptr, ptr, ptr, i32, double, i32, i32, double, ptr, ptr, ptr, i32, ptr, ptr, i32, i32, i32, double, ptr, ptr, ptr, [13 x ptr], ptr, ptr, ptr, ptr, ptr, ptr, ptr, ptr, ptr, [13 x ptr], ptr, ptr, ptr, ptr, [13 x ptr], ptr, ptr, ptr, ptr, ptr, i32, [13 x ptr], ptr, ptr, ptr, ptr, ptr, i32, i32, double, i32, i32, i32, i32, i32, double, double, double, double, double, double, double, double, [14 x double], [6 x double], [13 x double], double, double, double, double, double, double, double, double, i32, double, double, i32, double, double, ptr, i32, i64, i32, i32, i32, double, double, double, double, double, double, double, double, double, double, double, double, i64, i32, i64, i64, i64, i64, i64, i64, i64, i64, i64, ptr, i64, i64, ptr, i64, i64, ptr, i64, i64, i64, i64, i64, i64, i32, double, double, double, i64, i64, i64, i64, i64, i64, ptr, i32, ptr, i32, ptr, i32, ptr, i32, i32, i64, i32, ptr, i32, ptr, ptr, ptr, ptr, ptr, ptr, i32, i32, ptr, ptr, ptr, ptr, ptr, i64, double, i32, i32, i64, double, double, double, i32, i32, double, i32, i32, i32, i32, i32, i32, i32, i32, i32, i32, i32, i32, i32, i32, i32, i32, ptr, i64, i32, [6 x [4 x double]], i32, i64, ptr, i32, ptr, ptr, double, double, double, ptr, ptr, ptr, double, double, i32, i32, i64, ptr, i32, ptr, i32, i32, [13 x double], ptr, ptr, ptr, i32, ptr, i32 }
%struct._generic_N_Vector = type { ptr, ptr, ptr }
%struct._N_VectorContent_SensWrapper = type { ptr, i32, i32 }

@.str = private unnamed_addr constant [123 x i8] c"generated/home/dtcxzyw/WorkSpace/Projects/compilers/llvm-opt-benchmark/bench/sundials/sundials/src/cvodes/cvodes_nls_stg.c\00", align 1
@.str.1 = private unnamed_addr constant [26 x i8] c"cvode_mem = NULL illegal.\00", align 1
@__func__.cvNlsFPFunctionSensStg = private unnamed_addr constant [23 x i8] c"cvNlsFPFunctionSensStg\00", align 1

; Function Attrs: nounwind uwtable
define internal i32 @cvNlsFPFunctionSensStg(ptr noundef %0, ptr noundef %1, ptr noundef %2) #0 {
  %4 = alloca i32, align 4
  %5 = alloca ptr, align 8
  %6 = alloca ptr, align 8
  %7 = alloca ptr, align 8
  %8 = alloca ptr, align 8
  %9 = alloca i32, align 4
  %10 = alloca i32, align 4
  %11 = alloca ptr, align 8
  %12 = alloca ptr, align 8
  %13 = alloca i32, align 4
  store ptr %0, ptr %5, align 8, !tbaa !42
  store ptr %1, ptr %6, align 8, !tbaa !42
  store ptr %2, ptr %7, align 8, !tbaa !3
  call void @llvm.lifetime.start.p0(i64 8, ptr %8) #3
  call void @llvm.lifetime.start.p0(i64 4, ptr %9) #3
  call void @llvm.lifetime.start.p0(i64 4, ptr %10) #3
  call void @llvm.lifetime.start.p0(i64 8, ptr %11) #3
  call void @llvm.lifetime.start.p0(i64 8, ptr %12) #3
  %14 = load ptr, ptr %7, align 8, !tbaa !3
  %15 = icmp eq ptr %14, null
  br i1 %15, label %16, label %17

16:                                               ; preds = %3
  call void (ptr, i32, i32, ptr, ptr, ptr, ...) @cvProcessError(ptr noundef null, i32 noundef -21, i32 noundef 432, ptr noundef @__func__.cvNlsFPFunctionSensStg, ptr noundef @.str, ptr noundef @.str.1)
  store i32 -21, ptr %4, align 4
  store i32 1, ptr %13, align 4
  br label %119

17:                                               ; preds = %3
  %18 = load ptr, ptr %7, align 8, !tbaa !3
  store ptr %18, ptr %8, align 8, !tbaa !9
  %19 = load ptr, ptr %5, align 8, !tbaa !42
  %20 = getelementptr inbounds nuw %struct._generic_N_Vector, ptr %19, i32 0, i32 0
  %21 = load ptr, ptr %20, align 8, !tbaa !43
  %22 = getelementptr inbounds nuw %struct._N_VectorContent_SensWrapper, ptr %21, i32 0, i32 0
  %23 = load ptr, ptr %22, align 8, !tbaa !46
  store ptr %23, ptr %11, align 8, !tbaa !41
  %24 = load ptr, ptr %6, align 8, !tbaa !42
  %25 = getelementptr inbounds nuw %struct._generic_N_Vector, ptr %24, i32 0, i32 0
  %26 = load ptr, ptr %25, align 8, !tbaa !43
  %27 = getelementptr inbounds nuw %struct._N_VectorContent_SensWrapper, ptr %26, i32 0, i32 0
  %28 = load ptr, ptr %27, align 8, !tbaa !46
  store ptr %28, ptr %12, align 8, !tbaa !41
  %29 = load ptr, ptr %8, align 8, !tbaa !9
  %30 = getelementptr inbounds nuw %struct.CVodeMemRec, ptr %29, i32 0, i32 23
  %31 = load i32, ptr %30, align 8, !tbaa !36
  %32 = load ptr, ptr %8, align 8, !tbaa !9
  %33 = getelementptr inbounds nuw %struct.CVodeMemRec, ptr %32, i32 0, i32 66
  %34 = getelementptr inbounds [13 x ptr], ptr %33, i64 0, i64 0
  %35 = load ptr, ptr %34, align 8, !tbaa !41
  %36 = load ptr, ptr %11, align 8, !tbaa !41
  %37 = load ptr, ptr %8, align 8, !tbaa !9
  %38 = getelementptr inbounds nuw %struct.CVodeMemRec, ptr %37, i32 0, i32 68
  %39 = load ptr, ptr %38, align 8, !tbaa !51
  %40 = call i32 @N_VLinearSumVectorArray(i32 noundef %31, double noundef 1.000000e+00, ptr noundef %35, double noundef 1.000000e+00, ptr noundef %36, ptr noundef %39)
  store i32 %40, ptr %9, align 4, !tbaa !34
  %41 = load i32, ptr %9, align 4, !tbaa !34
  %42 = icmp ne i32 %41, 0
  br i1 %42, label %43, label %44

43:                                               ; preds = %17
  store i32 -28, ptr %4, align 4
  store i32 1, ptr %13, align 4
  br label %119

44:                                               ; preds = %17
  %45 = load ptr, ptr %8, align 8, !tbaa !9
  %46 = load ptr, ptr %8, align 8, !tbaa !9
  %47 = getelementptr inbounds nuw %struct.CVodeMemRec, ptr %46, i32 0, i32 93
  %48 = load double, ptr %47, align 8, !tbaa !52
  %49 = load ptr, ptr %8, align 8, !tbaa !9
  %50 = getelementptr inbounds nuw %struct.CVodeMemRec, ptr %49, i32 0, i32 53
  %51 = load ptr, ptr %50, align 8, !tbaa !53
  %52 = load ptr, ptr %8, align 8, !tbaa !9
  %53 = getelementptr inbounds nuw %struct.CVodeMemRec, ptr %52, i32 0, i32 56
  %54 = load ptr, ptr %53, align 8, !tbaa !54
  %55 = load ptr, ptr %8, align 8, !tbaa !9
  %56 = getelementptr inbounds nuw %struct.CVodeMemRec, ptr %55, i32 0, i32 68
  %57 = load ptr, ptr %56, align 8, !tbaa !51
  %58 = load ptr, ptr %12, align 8, !tbaa !41
  %59 = load ptr, ptr %8, align 8, !tbaa !9
  %60 = getelementptr inbounds nuw %struct.CVodeMemRec, ptr %59, i32 0, i32 57
  %61 = load ptr, ptr %60, align 8, !tbaa !56
  %62 = load ptr, ptr %8, align 8, !tbaa !9
  %63 = getelementptr inbounds nuw %struct.CVodeMemRec, ptr %62, i32 0, i32 58
  %64 = load ptr, ptr %63, align 8, !tbaa !57
  %65 = call i32 @cvSensRhsWrapper(ptr noundef %45, double noundef %48, ptr noundef %51, ptr noundef %54, ptr noundef %57, ptr noundef %58, ptr noundef %61, ptr noundef %64)
  store i32 %65, ptr %9, align 4, !tbaa !34
  %66 = load i32, ptr %9, align 4, !tbaa !34
  %67 = icmp slt i32 %66, 0
  br i1 %67, label %68, label %69

68:                                               ; preds = %44
  store i32 -41, ptr %4, align 4
  store i32 1, ptr %13, align 4
  br label %119

69:                                               ; preds = %44
  %70 = load i32, ptr %9, align 4, !tbaa !34
  %71 = icmp sgt i32 %70, 0
  br i1 %71, label %72, label %73

72:                                               ; preds = %69
  store i32 15, ptr %4, align 4
  store i32 1, ptr %13, align 4
  br label %119

73:                                               ; preds = %69
  store i32 0, ptr %10, align 4, !tbaa !34
  br label %74

74:                                               ; preds = %115, %73
  %75 = load i32, ptr %10, align 4, !tbaa !34
  %76 = load ptr, ptr %8, align 8, !tbaa !9
  %77 = getelementptr inbounds nuw %struct.CVodeMemRec, ptr %76, i32 0, i32 23
  %78 = load i32, ptr %77, align 8, !tbaa !36
  %79 = icmp slt i32 %75, %78
  br i1 %79, label %80, label %118

80:                                               ; preds = %74
  %81 = load ptr, ptr %8, align 8, !tbaa !9
  %82 = getelementptr inbounds nuw %struct.CVodeMemRec, ptr %81, i32 0, i32 88
  %83 = load double, ptr %82, align 8, !tbaa !61
  %84 = load ptr, ptr %12, align 8, !tbaa !41
  %85 = load i32, ptr %10, align 4, !tbaa !34
  %86 = sext i32 %85 to i64
  %87 = getelementptr inbounds ptr, ptr %84, i64 %86
  %88 = load ptr, ptr %87, align 8, !tbaa !42
  %89 = load ptr, ptr %8, align 8, !tbaa !9
  %90 = getelementptr inbounds nuw %struct.CVodeMemRec, ptr %89, i32 0, i32 66
  %91 = getelementptr inbounds [13 x ptr], ptr %90, i64 0, i64 1
  %92 = load ptr, ptr %91, align 8, !tbaa !41
  %93 = load i32, ptr %10, align 4, !tbaa !34
  %94 = sext i32 %93 to i64
  %95 = getelementptr inbounds ptr, ptr %92, i64 %94
  %96 = load ptr, ptr %95, align 8, !tbaa !42
  %97 = load ptr, ptr %12, align 8, !tbaa !41
  %98 = load i32, ptr %10, align 4, !tbaa !34
  %99 = sext i32 %98 to i64
  %100 = getelementptr inbounds ptr, ptr %97, i64 %99
  %101 = load ptr, ptr %100, align 8, !tbaa !42
  call void @N_VLinearSum(double noundef %83, ptr noundef %88, double noundef -1.000000e+00, ptr noundef %96, ptr noundef %101)
  %102 = load ptr, ptr %8, align 8, !tbaa !9
  %103 = getelementptr inbounds nuw %struct.CVodeMemRec, ptr %102, i32 0, i32 98
  %104 = load double, ptr %103, align 8, !tbaa !58
  %105 = load ptr, ptr %12, align 8, !tbaa !41
  %106 = load i32, ptr %10, align 4, !tbaa !34
  %107 = sext i32 %106 to i64
  %108 = getelementptr inbounds ptr, ptr %105, i64 %107
  %109 = load ptr, ptr %108, align 8, !tbaa !42
  %110 = load ptr, ptr %12, align 8, !tbaa !41
  %111 = load i32, ptr %10, align 4, !tbaa !34
  %112 = sext i32 %111 to i64
  %113 = getelementptr inbounds ptr, ptr %110, i64 %112
  %114 = load ptr, ptr %113, align 8, !tbaa !42
  call void @N_VScale(double noundef %104, ptr noundef %109, ptr noundef %114)
  br label %115

115:                                              ; preds = %80
  %116 = load i32, ptr %10, align 4, !tbaa !34
  %117 = add nsw i32 %116, 1
  store i32 %117, ptr %10, align 4, !tbaa !34
  br label %74

118:                                              ; preds = %74
  store i32 0, ptr %4, align 4
  store i32 1, ptr %13, align 4
  br label %119

119:                                              ; preds = %118, %72, %68, %43, %16
  call void @llvm.lifetime.end.p0(i64 8, ptr %12) #3
  call void @llvm.lifetime.end.p0(i64 8, ptr %11) #3
  call void @llvm.lifetime.end.p0(i64 4, ptr %10) #3
  call void @llvm.lifetime.end.p0(i64 4, ptr %9) #3
  call void @llvm.lifetime.end.p0(i64 8, ptr %8) #3
  %120 = load i32, ptr %4, align 4
  ret i32 %120
}