; Function Attrs: nounwind uwtable
define internal range(i32 -41, 16) i32 @cvNlsFPFunctionSensStg(ptr noundef readonly captures(none) %0, ptr noundef readonly captures(none) %1, ptr noundef %2) #0 {
  %4 = icmp eq ptr %2, null
  br i1 %4, label %5, label %6

5:                                                ; preds = %3
  tail call void (ptr, i32, i32, ptr, ptr, ptr, ...) @cvProcessError(ptr noundef null, i32 noundef -21, i32 noundef 432, ptr noundef nonnull @__func__.cvNlsFPFunctionSensStg, ptr noundef nonnull @.str, ptr noundef nonnull @.str.1) #3
  br label %.loopexit

6:                                                ; preds = %3
  %7 = load ptr, ptr %0, align 8, !tbaa !40
  %8 = load ptr, ptr %7, align 8, !tbaa !43
  %9 = load ptr, ptr %1, align 8, !tbaa !40
  %10 = load ptr, ptr %9, align 8, !tbaa !43
  %11 = getelementptr inbounds nuw i8, ptr %2, i64 144
  %12 = load i32, ptr %11, align 8, !tbaa !31
  %13 = getelementptr inbounds nuw i8, ptr %2, i64 648
  %14 = load ptr, ptr %13, align 8, !tbaa !36
  %15 = getelementptr inbounds nuw i8, ptr %2, i64 760
  %16 = load ptr, ptr %15, align 8, !tbaa !46
  %17 = tail call i32 @N_VLinearSumVectorArray(i32 noundef %12, double noundef 1.000000e+00, ptr noundef %14, double noundef 1.000000e+00, ptr noundef %8, ptr noundef %16) #3
  %.not = icmp eq i32 %17, 0
  br i1 %.not, label %18, label %.loopexit

18:                                               ; preds = %6
  %19 = getelementptr inbounds nuw i8, ptr %2, i64 1032
  %20 = load double, ptr %19, align 8, !tbaa !47
  %21 = getelementptr inbounds nuw i8, ptr %2, i64 448
  %22 = load ptr, ptr %21, align 8, !tbaa !48
  %23 = getelementptr inbounds nuw i8, ptr %2, i64 472
  %24 = load ptr, ptr %23, align 8, !tbaa !49
  %25 = load ptr, ptr %15, align 8, !tbaa !46
  %26 = getelementptr inbounds nuw i8, ptr %2, i64 480
  %27 = load ptr, ptr %26, align 8, !tbaa !51
  %28 = getelementptr inbounds nuw i8, ptr %2, i64 488
  %29 = load ptr, ptr %28, align 8, !tbaa !52
  %30 = tail call i32 @cvSensRhsWrapper(ptr noundef nonnull %2, double noundef %20, ptr noundef %22, ptr noundef %24, ptr noundef %25, ptr noundef %10, ptr noundef %27, ptr noundef %29) #3
  %31 = icmp slt i32 %30, 0
  br i1 %31, label %.loopexit, label %32

32:                                               ; preds = %18
  %.not37 = icmp eq i32 %30, 0
  br i1 %.not37, label %.preheader, label %.loopexit

.preheader:                                       ; preds = %32
  %33 = load i32, ptr %11, align 8, !tbaa !31
  %34 = icmp sgt i32 %33, 0
  br i1 %34, label %.lr.ph, label %.loopexit

.lr.ph:                                           ; preds = %.preheader
  %35 = getelementptr inbounds nuw i8, ptr %2, i64 992
  %36 = getelementptr inbounds nuw i8, ptr %2, i64 656
  %37 = getelementptr inbounds nuw i8, ptr %2, i64 1312
  br label %38

38:                                               ; preds = %.lr.ph, %38
  %indvars.iv = phi i64 [ 0, %.lr.ph ], [ %indvars.iv.next, %38 ]
  %39 = load double, ptr %35, align 8, !tbaa !56
  %40 = getelementptr inbounds nuw ptr, ptr %10, i64 %indvars.iv
  %41 = load ptr, ptr %40, align 8, !tbaa !39
  %42 = load ptr, ptr %36, align 8, !tbaa !36
  %43 = getelementptr inbounds nuw ptr, ptr %42, i64 %indvars.iv
  %44 = load ptr, ptr %43, align 8, !tbaa !39
  tail call void @N_VLinearSum(double noundef %39, ptr noundef %41, double noundef -1.000000e+00, ptr noundef %44, ptr noundef %41) #3
  %45 = load double, ptr %37, align 8, !tbaa !53
  %46 = load ptr, ptr %40, align 8, !tbaa !39
  tail call void @N_VScale(double noundef %45, ptr noundef %46, ptr noundef %46) #3
  %indvars.iv.next = add nuw nsw i64 %indvars.iv, 1
  %47 = load i32, ptr %11, align 8, !tbaa !31
  %48 = sext i32 %47 to i64
  %49 = icmp slt i64 %indvars.iv.next, %48
  br i1 %49, label %38, label %.loopexit

.loopexit:                                        ; preds = %38, %.preheader, %32, %18, %6, %5
  %.0 = phi i32 [ -21, %5 ], [ -28, %6 ], [ -41, %18 ], [ 15, %32 ], [ 0, %.preheader ], [ 0, %38 ]
  ret i32 %.0
}